target datalayout = "e-m:e-p270:32:32-p271:32:32-p272:64:64-i64:64-i128:128-f80:128-n8:16:32:64-S128"
target triple = "x86_64-pc-linux-gnu"

%struct.TclStubs = type { i32, ptr, ptr, ptr, ptr, ptr, ptr, ptr, ptr, ptr, ptr, ptr, ptr, ptr, ptr, ptr, ptr, ptr, ptr, ptr, ptr, ptr, ptr, ptr, ptr, ptr, ptr, ptr, ptr, ptr, ptr, ptr, ptr, ptr, ptr, ptr, ptr, ptr, ptr, ptr, ptr, ptr, ptr, ptr, ptr, ptr, ptr, ptr, ptr, ptr, ptr, ptr, ptr, ptr, ptr, ptr, ptr, ptr, ptr, ptr, ptr, ptr, ptr, ptr, ptr, ptr, ptr, ptr, ptr, ptr, ptr, ptr, ptr, ptr, ptr, ptr, ptr, ptr, ptr, ptr, ptr, ptr, ptr, ptr, ptr, ptr, ptr, ptr, ptr, ptr, ptr, ptr, ptr, ptr, ptr, ptr, ptr, ptr, ptr, ptr, ptr, ptr, ptr, ptr, ptr, ptr, ptr, ptr, ptr, ptr, ptr, ptr, ptr, ptr, ptr, ptr, ptr, ptr, ptr, ptr, ptr, ptr, ptr, ptr, ptr, ptr, ptr, ptr, ptr, ptr, ptr, ptr, ptr, ptr, ptr, ptr, ptr, ptr, ptr, ptr, ptr, ptr, ptr, ptr, ptr, ptr, ptr, ptr, ptr, ptr, ptr, ptr, ptr, ptr, ptr, ptr, ptr, ptr, ptr, ptr, ptr, ptr, ptr, ptr, ptr, ptr, ptr, ptr, ptr, ptr, ptr, ptr, ptr, ptr, ptr, ptr, ptr, ptr, ptr, ptr, ptr, ptr, ptr, ptr, ptr, ptr, ptr, ptr, ptr, ptr, ptr, ptr, ptr, ptr, ptr, ptr, ptr, ptr, ptr, ptr, ptr, ptr, ptr, ptr, ptr, ptr, ptr, ptr, ptr, ptr, ptr, ptr, ptr, ptr, ptr, ptr, ptr, ptr, ptr, ptr, ptr, ptr, ptr, ptr, ptr, ptr, ptr, ptr, ptr, ptr, ptr, ptr, ptr, ptr, ptr, ptr, ptr, ptr, ptr, ptr, ptr, ptr, ptr, ptr, ptr, ptr, ptr, ptr, ptr, ptr, ptr, ptr, ptr, ptr, ptr, ptr, ptr, ptr, ptr, ptr, ptr, ptr, ptr, ptr, ptr, ptr, ptr, ptr, ptr, ptr, ptr, ptr, ptr, ptr, ptr, ptr, ptr, ptr, ptr, ptr, ptr, ptr, ptr, ptr, ptr, ptr, ptr, ptr, ptr, ptr, ptr, ptr, ptr, ptr, ptr, ptr, ptr, ptr, ptr, ptr, ptr, ptr, ptr, ptr, ptr, ptr, ptr, ptr, ptr, ptr, ptr, ptr, ptr, ptr, ptr, ptr, ptr, ptr, ptr, ptr, ptr, ptr, ptr, ptr, ptr, ptr, ptr, ptr, ptr, ptr, ptr, ptr, ptr, ptr, ptr, ptr, ptr, ptr, ptr, ptr, ptr, ptr, ptr, ptr, ptr, ptr, ptr, ptr, ptr, ptr, ptr, ptr, ptr, ptr, ptr, ptr, ptr, ptr, ptr, ptr, ptr, ptr, ptr, ptr, ptr, ptr, ptr, ptr, ptr, ptr, ptr, ptr, ptr, ptr, ptr, ptr, ptr, ptr, ptr, ptr, ptr, ptr, ptr, ptr, ptr, ptr, ptr, ptr, ptr, ptr, ptr, ptr, ptr, ptr, ptr, ptr, ptr, ptr, ptr, ptr, ptr, ptr, ptr, ptr, ptr, ptr, ptr, ptr, ptr, ptr, ptr, ptr, ptr, ptr, ptr, ptr, ptr, ptr, ptr, ptr, ptr, ptr, ptr, ptr, ptr, ptr, ptr, ptr, ptr, ptr, ptr, ptr, ptr, ptr, ptr, ptr, ptr, ptr, ptr, ptr, ptr, ptr, ptr, ptr, ptr, ptr, ptr, ptr, ptr, ptr, ptr, ptr, ptr, ptr, ptr, ptr, ptr, ptr, ptr, ptr, ptr, ptr, ptr, ptr, ptr, ptr, ptr, ptr, ptr, ptr, ptr, ptr, ptr, ptr, ptr, ptr, ptr, ptr, ptr, ptr, ptr, ptr, ptr, ptr, ptr, ptr, ptr, ptr, ptr, ptr, ptr, ptr, ptr, ptr, ptr, ptr, ptr, ptr, ptr, ptr, ptr, ptr, ptr, ptr, ptr, ptr, ptr, ptr, ptr, ptr, ptr, ptr, ptr, ptr, ptr, ptr, ptr, ptr, ptr, ptr, ptr, ptr, ptr, ptr, ptr, ptr, ptr, ptr, ptr, ptr, ptr, ptr, ptr, ptr, ptr, ptr, ptr, ptr, ptr, ptr, ptr, ptr, ptr, ptr, ptr, ptr, ptr, ptr, ptr, ptr, ptr, ptr, ptr, ptr, ptr, ptr, ptr, ptr, ptr, ptr, ptr, ptr, ptr, ptr, ptr, ptr, ptr, ptr, ptr, ptr, ptr, ptr, ptr, ptr, ptr, ptr, ptr, ptr, ptr, ptr, ptr, ptr, ptr, ptr, ptr, ptr, ptr, ptr, ptr, ptr, ptr, ptr, ptr, ptr, ptr, ptr, ptr, ptr, ptr, ptr, ptr, ptr, ptr, ptr, ptr, ptr, ptr, ptr, ptr, ptr, ptr, ptr, ptr, ptr, ptr, ptr, ptr, ptr, ptr, ptr, ptr, ptr, ptr, ptr, ptr, ptr, ptr, ptr, ptr, ptr, ptr, ptr, ptr, ptr, ptr, ptr, ptr, ptr, ptr, ptr, ptr, ptr, ptr, ptr, ptr, ptr, ptr, ptr, ptr, ptr, ptr, ptr, ptr, ptr, ptr, ptr, ptr, ptr, ptr, ptr, ptr, ptr, ptr }
%struct.SqliteDb = type { ptr, ptr, ptr, ptr, ptr, ptr, ptr, ptr, ptr, ptr, i32, ptr, ptr, ptr, ptr, ptr, ptr, ptr, ptr, i32, ptr, ptr, ptr, i32, i32, ptr, i32, i32, i32, i32, i32, i32, i32 }
%struct.SqlFunc = type { ptr, ptr, ptr, i32, i32, ptr, ptr }

@tclStubsPtr = external global ptr, align 8

; Function Attrs: nounwind uwtable
define internal i32 @strlen30(ptr noundef %0) #0 {
  %2 = alloca ptr, align 8
  %3 = alloca ptr, align 8
  store ptr %0, ptr %2, align 8, !tbaa !18
  call void @llvm.lifetime.start.p0(i64 8, ptr %3) #10
  %4 = load ptr, ptr %2, align 8, !tbaa !18
  store ptr %4, ptr %3, align 8, !tbaa !18
  br label %5

5:                                                ; preds = %9, %1
  %6 = load ptr, ptr %3, align 8, !tbaa !18
  %7 = load i8, ptr %6, align 1, !tbaa !24
  %8 = icmp ne i8 %7, 0
  br i1 %8, label %9, label %12

9:                                                ; preds = %5
  %10 = load ptr, ptr %3, align 8, !tbaa !18
  %11 = getelementptr inbounds nuw i8, ptr %10, i32 1
  store ptr %11, ptr %3, align 8, !tbaa !18
  br label %5, !llvm.loop !151

12:                                               ; preds = %5
  %13 = load ptr, ptr %3, align 8, !tbaa !18
  %14 = load ptr, ptr %2, align 8, !tbaa !18
  %15 = ptrtoint ptr %13 to i64
  %16 = ptrtoint ptr %14 to i64
  %17 = sub i64 %15, %16
  %18 = trunc i64 %17 to i32
  %19 = and i32 1073741823, %18
  call void @llvm.lifetime.end.p0(i64 8, ptr %3) #10
  ret i32 %19
}

; Function Attrs: nounwind uwtable
define internal ptr @findSqlFunc(ptr noundef %0, ptr noundef %1) #0 {
  %3 = alloca ptr, align 8
  %4 = alloca ptr, align 8
  %5 = alloca ptr, align 8
  %6 = alloca ptr, align 8
  %7 = alloca ptr, align 8
  %8 = alloca i32, align 4
  %9 = alloca i32, align 4
  store ptr %0, ptr %4, align 8, !tbaa !30
  store ptr %1, ptr %5, align 8, !tbaa !18
  call void @llvm.lifetime.start.p0(i64 8, ptr %6) #10
  call void @llvm.lifetime.start.p0(i64 8, ptr %7) #10
  call void @llvm.lifetime.start.p0(i64 4, ptr %8) #10
  %10 = load ptr, ptr %5, align 8, !tbaa !18
  %11 = call i32 @strlen30(ptr noundef %10)
  store i32 %11, ptr %8, align 4, !tbaa !8
  %12 = load ptr, ptr @tclStubsPtr, align 8, !tbaa !10
  %13 = getelementptr inbounds nuw %struct.TclStubs, ptr %12, i32 0, i32 5
  %14 = load ptr, ptr %13, align 8, !tbaa !29
  %15 = load i32, ptr %8, align 4, !tbaa !8
  %16 = sext i32 %15 to i64
  %17 = add i64 48, %16
  %18 = add i64 %17, 1
  %19 = trunc i64 %18 to i32
  %20 = call ptr %14(i32 noundef %19)
  store ptr %20, ptr %7, align 8, !tbaa !110
  %21 = load ptr, ptr %7, align 8, !tbaa !110
  %22 = getelementptr inbounds %struct.SqlFunc, ptr %21, i64 1
  %23 = load ptr, ptr %7, align 8, !tbaa !110
  %24 = getelementptr inbounds nuw %struct.SqlFunc, ptr %23, i32 0, i32 5
  store ptr %22, ptr %24, align 8, !tbaa !176
  %25 = load ptr, ptr %7, align 8, !tbaa !110
  %26 = getelementptr inbounds nuw %struct.SqlFunc, ptr %25, i32 0, i32 5
  %27 = load ptr, ptr %26, align 8, !tbaa !176
  %28 = load ptr, ptr %5, align 8, !tbaa !18
  %29 = load i32, ptr %8, align 4, !tbaa !8
  %30 = add nsw i32 %29, 1
  %31 = sext i32 %30 to i64
  call void @llvm.memcpy.p0.p0.i64(ptr align 1 %27, ptr align 1 %28, i64 %31, i1 false)
  %32 = load ptr, ptr %4, align 8, !tbaa !30
  %33 = getelementptr inbounds nuw %struct.SqliteDb, ptr %32, i32 0, i32 12
  %34 = load ptr, ptr %33, align 8, !tbaa !177
  store ptr %34, ptr %6, align 8, !tbaa !110
  br label %35

35:                                               ; preds = %54, %2
  %36 = load ptr, ptr %6, align 8, !tbaa !110
  %37 = icmp ne ptr %36, null
  br i1 %37, label %38, label %58

38:                                               ; preds = %35
  %39 = load ptr, ptr %6, align 8, !tbaa !110
  %40 = getelementptr inbounds nuw %struct.SqlFunc, ptr %39, i32 0, i32 5
  %41 = load ptr, ptr %40, align 8, !tbaa !176
  %42 = load ptr, ptr %7, align 8, !tbaa !110
  %43 = getelementptr inbounds nuw %struct.SqlFunc, ptr %42, i32 0, i32 5
  %44 = load ptr, ptr %43, align 8, !tbaa !176
  %45 = call i32 @sqlite3_stricmp(ptr noundef %41, ptr noundef %44)
  %46 = icmp eq i32 %45, 0
  br i1 %46, label %47, label %53

47:                                               ; preds = %38
  %48 = load ptr, ptr @tclStubsPtr, align 8, !tbaa !10
  %49 = getelementptr inbounds nuw %struct.TclStubs, ptr %48, i32 0, i32 6
  %50 = load ptr, ptr %49, align 8, !tbaa !42
  %51 = load ptr, ptr %7, align 8, !tbaa !110
  call void %50(ptr noundef %51)
  %52 = load ptr, ptr %6, align 8, !tbaa !110
  store ptr %52, ptr %3, align 8
  store i32 1, ptr %9, align 4
  br label %78

53:                                               ; preds = %38
  br label %54

54:                                               ; preds = %53
  %55 = load ptr, ptr %6, align 8, !tbaa !110
  %56 = getelementptr inbounds nuw %struct.SqlFunc, ptr %55, i32 0, i32 6
  %57 = load ptr, ptr %56, align 8, !tbaa !178
  store ptr %57, ptr %6, align 8, !tbaa !110
  br label %35, !llvm.loop !179

58:                                               ; preds = %35
  %59 = load ptr, ptr %4, align 8, !tbaa !30
  %60 = getelementptr inbounds nuw %struct.SqliteDb, ptr %59, i32 0, i32 1
  %61 = load ptr, ptr %60, align 8, !tbaa !45
  %62 = load ptr, ptr %7, align 8, !tbaa !110
  %63 = getelementptr inbounds nuw %struct.SqlFunc, ptr %62, i32 0, i32 0
  store ptr %61, ptr %63, align 8, !tbaa !180
  %64 = load ptr, ptr %4, align 8, !tbaa !30
  %65 = load ptr, ptr %7, align 8, !tbaa !110
  %66 = getelementptr inbounds nuw %struct.SqlFunc, ptr %65, i32 0, i32 2
  store ptr %64, ptr %66, align 8, !tbaa !181
  %67 = load ptr, ptr %7, align 8, !tbaa !110
  %68 = getelementptr inbounds nuw %struct.SqlFunc, ptr %67, i32 0, i32 1
  store ptr null, ptr %68, align 8, !tbaa !111
  %69 = load ptr, ptr %4, align 8, !tbaa !30
  %70 = getelementptr inbounds nuw %struct.SqliteDb, ptr %69, i32 0, i32 12
  %71 = load ptr, ptr %70, align 8, !tbaa !177
  %72 = load ptr, ptr %7, align 8, !tbaa !110
  %73 = getelementptr inbounds nuw %struct.SqlFunc, ptr %72, i32 0, i32 6
  store ptr %71, ptr %73, align 8, !tbaa !178
  %74 = load ptr, ptr %7, align 8, !tbaa !110
  %75 = load ptr, ptr %4, align 8, !tbaa !30
  %76 = getelementptr inbounds nuw %struct.SqliteDb, ptr %75, i32 0, i32 12
  store ptr %74, ptr %76, align 8, !tbaa !177
  %77 = load ptr, ptr %7, align 8, !tbaa !110
  store ptr %77, ptr %3, align 8
  store i32 1, ptr %9, align 4
  br label %78

78:                                               ; preds = %58, %47
  call void @llvm.lifetime.end.p0(i64 4, ptr %8) #10
  call void @llvm.lifetime.end.p0(i64 8, ptr %7) #10
  call void @llvm.lifetime.end.p0(i64 8, ptr %6) #10
  %79 = load ptr, ptr %3, align 8
  ret ptr %79
}