; Function Attrs: nounwind uwtable
define internal fastcc ptr @findSqlFunc(ptr noundef %0, ptr noundef %1) unnamed_addr #0 {
  br label %3

3:                                                ; preds = %3, %2
  %.0.i = phi ptr [ %1, %2 ], [ %5, %3 ]
  %4 = load i8, ptr %.0.i, align 1, !tbaa !18
  %.not.i = icmp eq i8 %4, 0
  %5 = getelementptr inbounds nuw i8, ptr %.0.i, i64 1
  br i1 %.not.i, label %strlen30.exit, label %3, !llvm.loop !78

strlen30.exit:                                    ; preds = %3
  %6 = ptrtoint ptr %.0.i to i64
  %7 = ptrtoint ptr %1 to i64
  %8 = sub i64 %6, %7
  %9 = trunc i64 %8 to i32
  %10 = and i32 %9, 1073741823
  %11 = load ptr, ptr @tclStubsPtr, align 8, !tbaa !3
  %12 = getelementptr inbounds nuw i8, ptr %11, i64 40
  %13 = load ptr, ptr %12, align 8, !tbaa !23
  %narrow = add nuw nsw i32 %10, 49
  %14 = tail call ptr %13(i32 noundef %narrow) #14
  %15 = getelementptr inbounds nuw i8, ptr %14, i64 48
  %16 = getelementptr inbounds nuw i8, ptr %14, i64 32
  store ptr %15, ptr %16, align 8, !tbaa !176
  %17 = add nuw nsw i32 %10, 1
  %18 = zext nneg i32 %17 to i64
  tail call void @llvm.memcpy.p0.p0.i64(ptr noundef nonnull align 1 dereferenceable(1) %15, ptr noundef nonnull align 1 dereferenceable(1) %1, i64 %18, i1 false)
  %19 = getelementptr inbounds nuw i8, ptr %0, i64 96
  %.02426 = load ptr, ptr %19, align 8, !tbaa !177
  %.not27 = icmp eq ptr %.02426, null
  br i1 %.not27, label %._crit_edge, label %.lr.ph

.lr.ph:                                           ; preds = %strlen30.exit, %29
  %.02428 = phi ptr [ %.024, %29 ], [ %.02426, %strlen30.exit ]
  %20 = getelementptr inbounds nuw i8, ptr %.02428, i64 32
  %21 = load ptr, ptr %20, align 8, !tbaa !176
  %22 = load ptr, ptr %16, align 8, !tbaa !176
  %23 = tail call i32 @sqlite3_stricmp(ptr noundef %21, ptr noundef %22) #14
  %24 = icmp eq i32 %23, 0
  br i1 %24, label %25, label %29

25:                                               ; preds = %.lr.ph
  %26 = load ptr, ptr @tclStubsPtr, align 8, !tbaa !3
  %27 = getelementptr inbounds nuw i8, ptr %26, i64 48
  %28 = load ptr, ptr %27, align 8, !tbaa !36
  tail call void %28(ptr noundef nonnull %14) #14
  br label %37

29:                                               ; preds = %.lr.ph
  %30 = getelementptr inbounds nuw i8, ptr %.02428, i64 40
  %.024 = load ptr, ptr %30, align 8, !tbaa !177
  %.not = icmp eq ptr %.024, null
  br i1 %.not, label %._crit_edge.loopexit, label %.lr.ph, !llvm.loop !178

._crit_edge.loopexit:                             ; preds = %29
  %.pre = load ptr, ptr %19, align 8, !tbaa !179
  br label %._crit_edge

._crit_edge:                                      ; preds = %._crit_edge.loopexit, %strlen30.exit
  %31 = phi ptr [ %.pre, %._crit_edge.loopexit ], [ null, %strlen30.exit ]
  %32 = getelementptr inbounds nuw i8, ptr %0, i64 8
  %33 = load ptr, ptr %32, align 8, !tbaa !39
  store ptr %33, ptr %14, align 8, !tbaa !180
  %34 = getelementptr inbounds nuw i8, ptr %14, i64 16
  store ptr %0, ptr %34, align 8, !tbaa !181
  %35 = getelementptr inbounds nuw i8, ptr %14, i64 8
  store ptr null, ptr %35, align 8, !tbaa !103
  %36 = getelementptr inbounds nuw i8, ptr %14, i64 40
  store ptr %31, ptr %36, align 8, !tbaa !182
  store ptr %14, ptr %19, align 8, !tbaa !179
  br label %37

37:                                               ; preds = %._crit_edge, %25
  %.0 = phi ptr [ %.02428, %25 ], [ %14, %._crit_edge ]
  ret ptr %.0
}